; ModuleID = '28/812.c'
source_filename = "28/812.c"
target datalayout = "e-m:e-p270:32:32-p271:32:32-p272:64:64-i64:64-f80:128-n8:16:32:64-S128"
target triple = "x86_64-pc-linux-gnu"

@.str = private unnamed_addr constant [4 x i8] c"%d,\00", align 1
@.str.1 = private unnamed_addr constant [3 x i8] c"%d\00", align 1

; Function Attrs: noinline nounwind uwtable
define dso_local i32 @main() #0 {
  %1 = alloca i32, align 4
  %2 = alloca [3000 x i8], align 16
  %3 = alloca i32, align 4
  %4 = alloca i32, align 4
  %5 = alloca i32, align 4
  %6 = alloca i32, align 4
  %7 = alloca [300 x i32], align 16
  store i32 0, i32* %1, align 4
  store i32 0, i32* %5, align 4
  store i32 0, i32* %6, align 4
  %8 = getelementptr inbounds [3000 x i8], [3000 x i8]* %2, i64 0, i64 0
  %9 = call i32 (i8*, ...) bitcast (i32 (...)* @gets to i32 (i8*, ...)*)(i8* %8)
  store i32 0, i32* %3, align 4
  br label %10

10:                                               ; preds = %17, %0
  %11 = load i32, i32* %3, align 4
  %12 = icmp slt i32 %11, 300
  br i1 %12, label %13, label %20

13:                                               ; preds = %10
  %14 = load i32, i32* %3, align 4
  %15 = sext i32 %14 to i64
  %16 = getelementptr inbounds [300 x i32], [300 x i32]* %7, i64 0, i64 %15
  store i32 0, i32* %16, align 4
  br label %17

17:                                               ; preds = %13
  %18 = load i32, i32* %3, align 4
  %19 = add nsw i32 %18, 1
  store i32 %19, i32* %3, align 4
  br label %10

20:                                               ; preds = %10
  %21 = getelementptr inbounds [3000 x i8], [3000 x i8]* %2, i64 0, i64 0
  %22 = call i64 @strlen(i8* %21) #3
  %23 = trunc i64 %22 to i32
  store i32 %23, i32* %4, align 4
  store i32 0, i32* %3, align 4
  br label %24

24:                                               ; preds = %49, %20
  %25 = load i32, i32* %3, align 4
  %26 = load i32, i32* %4, align 4
  %27 = icmp slt i32 %25, %26
  br i1 %27, label %28, label %52

28:                                               ; preds = %24
  %29 = load i32, i32* %3, align 4
  %30 = sext i32 %29 to i64
  %31 = getelementptr inbounds [3000 x i8], [3000 x i8]* %2, i64 0, i64 %30
  %32 = load i8, i8* %31, align 1
  %33 = sext i8 %32 to i32
  %34 = icmp ne i32 %33, 32
  br i1 %34, label %35, label %41

35:                                               ; preds = %28
  store i32 0, i32* %6, align 4
  %36 = load i32, i32* %5, align 4
  %37 = sext i32 %36 to i64
  %38 = getelementptr inbounds [300 x i32], [300 x i32]* %7, i64 0, i64 %37
  %39 = load i32, i32* %38, align 4
  %40 = add nsw i32 %39, 1
  store i32 %40, i32* %38, align 4
  br label %48

41:                                               ; preds = %28
  %42 = load i32, i32* %6, align 4
  %43 = icmp eq i32 %42, 0
  br i1 %43, label %44, label %47

44:                                               ; preds = %41
  %45 = load i32, i32* %5, align 4
  %46 = add nsw i32 %45, 1
  store i32 %46, i32* %5, align 4
  store i32 1, i32* %6, align 4
  br label %47

47:                                               ; preds = %44, %41
  br label %48

48:                                               ; preds = %47, %35
  br label %49

49:                                               ; preds = %48
  %50 = load i32, i32* %3, align 4
  %51 = add nsw i32 %50, 1
  store i32 %51, i32* %3, align 4
  br label %24

52:                                               ; preds = %24
  store i32 0, i32* %3, align 4
  br label %53

53:                                               ; preds = %63, %52
  %54 = load i32, i32* %3, align 4
  %55 = load i32, i32* %5, align 4
  %56 = icmp slt i32 %54, %55
  br i1 %56, label %57, label %66

57:                                               ; preds = %53
  %58 = load i32, i32* %3, align 4
  %59 = sext i32 %58 to i64
  %60 = getelementptr inbounds [300 x i32], [300 x i32]* %7, i64 0, i64 %59
  %61 = load i32, i32* %60, align 4
  %62 = call i32 (i8*, ...) @printf(i8* getelementptr inbounds ([4 x i8], [4 x i8]* @.str, i64 0, i64 0), i32 %61)
  br label %63

63:                                               ; preds = %57
  %64 = load i32, i32* %3, align 4
  %65 = add nsw i32 %64, 1
  store i32 %65, i32* %3, align 4
  br label %53

66:                                               ; preds = %53
  %67 = load i32, i32* %3, align 4
  %68 = sext i32 %67 to i64
  %69 = getelementptr inbounds [300 x i32], [300 x i32]* %7, i64 0, i64 %68
  %70 = load i32, i32* %69, align 4
  %71 = call i32 (i8*, ...) @printf(i8* getelementptr inbounds ([3 x i8], [3 x i8]* @.str.1, i64 0, i64 0), i32 %70)
  ret i32 0
}

declare dso_local i32 @gets(...) #1

; Function Attrs: nounwind readonly
declare dso_local i64 @strlen(i8*) #2

declare dso_local i32 @printf(i8*, ...) #1


!llvm.module.flags = !{!0}
!llvm.ident = !{!1}

!0 = !{i32 1, !"wchar_size", i32 4}
!1 = !{!"clang version 10.0.0-4ubuntu1 "}
